target datalayout = "e-m:e-p270:32:32-p271:32:32-p272:64:64-i64:64-i128:128-f80:128-n8:16:32:64-S128"
target triple = "x86_64-pc-linux-gnu"

%struct.DdManager = type { %struct.DdNode, ptr, ptr, ptr, ptr, ptr, ptr, ptr, i32, i32, double, double, double, i32, i32, i32, i32, i32, i32, ptr, ptr, %struct.DdSubtable, i32, i32, i32, i32, i32, i32, i32, double, i32, i32, i32, ptr, i64, double, i32, ptr, ptr, ptr, ptr, ptr, ptr, ptr, i32, ptr, ptr, ptr, ptr, ptr, ptr, i32, i32, i32, double, i32, i32, i32, i32, double, double, i32, i32, i32, i32, i32, i32, i32, i32, i32, ptr, ptr, i32, i32, i32, i32, i32, i32, ptr, ptr, ptr, ptr, ptr, ptr, ptr, ptr, i32, i64, i64, i64, i32, i64, i64, double, double, double, double, double, double, i32, ptr, ptr, i64 }
%struct.DdNode = type { i32, i32, ptr, %union.anon, i64 }
%union.anon = type { %struct.DdChildren }
%struct.DdChildren = type { ptr, ptr }
%struct.DdSubtable = type { ptr, i32, i32, i32, i32, i32, i32, i32, i32, i32, i32, i32 }

; Function Attrs: inlinehint nounwind uwtable
define internal i32 @ddIsIthAddVarPair(ptr noundef %0, ptr noundef %1, ptr noundef %2, i32 noundef %3) #5 {
  %5 = alloca ptr, align 8
  %6 = alloca ptr, align 8
  %7 = alloca ptr, align 8
  %8 = alloca i32, align 4
  store ptr %0, ptr %5, align 8, !tbaa !3
  store ptr %1, ptr %6, align 8, !tbaa !8
  store ptr %2, ptr %7, align 8, !tbaa !8
  store i32 %3, ptr %8, align 4, !tbaa !10
  %9 = load ptr, ptr %6, align 8, !tbaa !8
  %10 = getelementptr inbounds nuw %struct.DdNode, ptr %9, i32 0, i32 0
  %11 = load i32, ptr %10, align 8, !tbaa !33
  %12 = load i32, ptr %8, align 4, !tbaa !10
  %13 = icmp eq i32 %11, %12
  br i1 %13, label %14, label %56

14:                                               ; preds = %4
  %15 = load ptr, ptr %7, align 8, !tbaa !8
  %16 = getelementptr inbounds nuw %struct.DdNode, ptr %15, i32 0, i32 0
  %17 = load i32, ptr %16, align 8, !tbaa !33
  %18 = load i32, ptr %8, align 4, !tbaa !10
  %19 = icmp eq i32 %17, %18
  br i1 %19, label %20, label %56

20:                                               ; preds = %14
  %21 = load ptr, ptr %6, align 8, !tbaa !8
  %22 = getelementptr inbounds nuw %struct.DdNode, ptr %21, i32 0, i32 3
  %23 = getelementptr inbounds nuw %struct.DdChildren, ptr %22, i32 0, i32 0
  %24 = load ptr, ptr %23, align 8, !tbaa !34
  %25 = load ptr, ptr %5, align 8, !tbaa !3
  %26 = getelementptr inbounds nuw %struct.DdManager, ptr %25, i32 0, i32 1
  %27 = load ptr, ptr %26, align 8, !tbaa !41
  %28 = icmp eq ptr %24, %27
  br i1 %28, label %29, label %56

29:                                               ; preds = %20
  %30 = load ptr, ptr %6, align 8, !tbaa !8
  %31 = getelementptr inbounds nuw %struct.DdNode, ptr %30, i32 0, i32 3
  %32 = getelementptr inbounds nuw %struct.DdChildren, ptr %31, i32 0, i32 1
  %33 = load ptr, ptr %32, align 8, !tbaa !34
  %34 = load ptr, ptr %5, align 8, !tbaa !3
  %35 = getelementptr inbounds nuw %struct.DdManager, ptr %34, i32 0, i32 2
  %36 = load ptr, ptr %35, align 8, !tbaa !42
  %37 = icmp eq ptr %33, %36
  br i1 %37, label %38, label %56

38:                                               ; preds = %29
  %39 = load ptr, ptr %7, align 8, !tbaa !8
  %40 = getelementptr inbounds nuw %struct.DdNode, ptr %39, i32 0, i32 3
  %41 = getelementptr inbounds nuw %struct.DdChildren, ptr %40, i32 0, i32 0
  %42 = load ptr, ptr %41, align 8, !tbaa !34
  %43 = load ptr, ptr %5, align 8, !tbaa !3
  %44 = getelementptr inbounds nuw %struct.DdManager, ptr %43, i32 0, i32 2
  %45 = load ptr, ptr %44, align 8, !tbaa !42
  %46 = icmp eq ptr %42, %45
  br i1 %46, label %47, label %56

47:                                               ; preds = %38
  %48 = load ptr, ptr %7, align 8, !tbaa !8
  %49 = getelementptr inbounds nuw %struct.DdNode, ptr %48, i32 0, i32 3
  %50 = getelementptr inbounds nuw %struct.DdChildren, ptr %49, i32 0, i32 1
  %51 = load ptr, ptr %50, align 8, !tbaa !34
  %52 = load ptr, ptr %5, align 8, !tbaa !3
  %53 = getelementptr inbounds nuw %struct.DdManager, ptr %52, i32 0, i32 1
  %54 = load ptr, ptr %53, align 8, !tbaa !41
  %55 = icmp eq ptr %51, %54
  br label %56

56:                                               ; preds = %47, %38, %29, %20, %14, %4
  %57 = phi i1 [ false, %38 ], [ false, %29 ], [ false, %20 ], [ false, %14 ], [ false, %4 ], [ %55, %47 ]
  %58 = zext i1 %57 to i32
  ret i32 %58
}

; Function Attrs: nounwind uwtable
define ptr @Cudd_addGeneralVectorCompose(ptr noundef %0, ptr noundef %1, ptr noundef %2, ptr noundef %3) #0 {
  %5 = alloca ptr, align 8
  %6 = alloca ptr, align 8
  %7 = alloca ptr, align 8
  %8 = alloca ptr, align 8
  %9 = alloca ptr, align 8
  %10 = alloca ptr, align 8
  %11 = alloca ptr, align 8
  %12 = alloca i32, align 4
  %13 = alloca i32, align 4
  %14 = alloca i32, align 4
  store ptr %0, ptr %6, align 8, !tbaa !3
  store ptr %1, ptr %7, align 8, !tbaa !8
  store ptr %2, ptr %8, align 8, !tbaa !44
  store ptr %3, ptr %9, align 8, !tbaa !44
  call void @llvm.lifetime.start.p0(i64 8, ptr %10) #6
  call void @llvm.lifetime.start.p0(i64 8, ptr %11) #6
  call void @llvm.lifetime.start.p0(i64 4, ptr %12) #6
  call void @llvm.lifetime.start.p0(i64 4, ptr %13) #6
  br label %15

15:                                               ; preds = %78, %4
  %16 = load ptr, ptr %6, align 8, !tbaa !3
  %17 = getelementptr inbounds nuw %struct.DdManager, ptr %16, i32 0, i32 55
  store i32 0, ptr %17, align 8, !tbaa !29
  %18 = load ptr, ptr %6, align 8, !tbaa !3
  %19 = call ptr @cuddHashTableInit(ptr noundef %18, i32 noundef 1, i32 noundef 2)
  store ptr %19, ptr %10, align 8, !tbaa !38
  %20 = load ptr, ptr %10, align 8, !tbaa !38
  %21 = icmp eq ptr %20, null
  br i1 %21, label %22, label %23

22:                                               ; preds = %15
  store ptr null, ptr %5, align 8
  store i32 1, ptr %14, align 4
  br label %96

23:                                               ; preds = %15
  %24 = load ptr, ptr %6, align 8, !tbaa !3
  %25 = getelementptr inbounds nuw %struct.DdManager, ptr %24, i32 0, i32 15
  %26 = load i32, ptr %25, align 8, !tbaa !12
  %27 = sub nsw i32 %26, 1
  store i32 %27, ptr %12, align 4, !tbaa !10
  br label %28

28:                                               ; preds = %55, %23
  %29 = load i32, ptr %12, align 4, !tbaa !10
  %30 = icmp sge i32 %29, 0
  br i1 %30, label %31, label %58

31:                                               ; preds = %28
  %32 = load ptr, ptr %6, align 8, !tbaa !3
  %33 = getelementptr inbounds nuw %struct.DdManager, ptr %32, i32 0, i32 39
  %34 = load ptr, ptr %33, align 8, !tbaa !60
  %35 = load i32, ptr %12, align 4, !tbaa !10
  %36 = sext i32 %35 to i64
  %37 = getelementptr inbounds i32, ptr %34, i64 %36
  %38 = load i32, ptr %37, align 4, !tbaa !10
  store i32 %38, ptr %13, align 4, !tbaa !10
  %39 = load ptr, ptr %6, align 8, !tbaa !3
  %40 = load ptr, ptr %8, align 8, !tbaa !44
  %41 = load i32, ptr %13, align 4, !tbaa !10
  %42 = sext i32 %41 to i64
  %43 = getelementptr inbounds ptr, ptr %40, i64 %42
  %44 = load ptr, ptr %43, align 8, !tbaa !8
  %45 = load ptr, ptr %9, align 8, !tbaa !44
  %46 = load i32, ptr %13, align 4, !tbaa !10
  %47 = sext i32 %46 to i64
  %48 = getelementptr inbounds ptr, ptr %45, i64 %47
  %49 = load ptr, ptr %48, align 8, !tbaa !8
  %50 = load i32, ptr %13, align 4, !tbaa !10
  %51 = call i32 @ddIsIthAddVarPair(ptr noundef %39, ptr noundef %44, ptr noundef %49, i32 noundef %50)
  %52 = icmp ne i32 %51, 0
  br i1 %52, label %54, label %53

53:                                               ; preds = %31
  br label %58

54:                                               ; preds = %31
  br label %55

55:                                               ; preds = %54
  %56 = load i32, ptr %12, align 4, !tbaa !10
  %57 = add nsw i32 %56, -1
  store i32 %57, ptr %12, align 4, !tbaa !10
  br label %28, !llvm.loop !63

58:                                               ; preds = %53, %28
  %59 = load ptr, ptr %6, align 8, !tbaa !3
  %60 = load ptr, ptr %10, align 8, !tbaa !38
  %61 = load ptr, ptr %7, align 8, !tbaa !8
  %62 = load ptr, ptr %8, align 8, !tbaa !44
  %63 = load ptr, ptr %9, align 8, !tbaa !44
  %64 = load i32, ptr %12, align 4, !tbaa !10
  %65 = call ptr @cuddAddGeneralVectorComposeRecur(ptr noundef %59, ptr noundef %60, ptr noundef %61, ptr noundef %62, ptr noundef %63, i32 noundef %64)
  store ptr %65, ptr %11, align 8, !tbaa !8
  %66 = load ptr, ptr %11, align 8, !tbaa !8
  %67 = icmp ne ptr %66, null
  br i1 %67, label %68, label %76

68:                                               ; preds = %58
  %69 = load ptr, ptr %11, align 8, !tbaa !8
  %70 = ptrtoint ptr %69 to i64
  %71 = and i64 %70, -2
  %72 = inttoptr i64 %71 to ptr
  %73 = getelementptr inbounds nuw %struct.DdNode, ptr %72, i32 0, i32 1
  %74 = load i32, ptr %73, align 4, !tbaa !35
  %75 = add i32 %74, 1
  store i32 %75, ptr %73, align 4, !tbaa !35
  br label %76

76:                                               ; preds = %68, %58
  %77 = load ptr, ptr %10, align 8, !tbaa !38
  call void @cuddHashTableQuit(ptr noundef %77)
  br label %78

78:                                               ; preds = %76
  %79 = load ptr, ptr %6, align 8, !tbaa !3
  %80 = getelementptr inbounds nuw %struct.DdManager, ptr %79, i32 0, i32 55
  %81 = load i32, ptr %80, align 8, !tbaa !29
  %82 = icmp eq i32 %81, 1
  br i1 %82, label %15, label %83, !llvm.loop !64

83:                                               ; preds = %78
  %84 = load ptr, ptr %11, align 8, !tbaa !8
  %85 = icmp ne ptr %84, null
  br i1 %85, label %86, label %94

86:                                               ; preds = %83
  %87 = load ptr, ptr %11, align 8, !tbaa !8
  %88 = ptrtoint ptr %87 to i64
  %89 = and i64 %88, -2
  %90 = inttoptr i64 %89 to ptr
  %91 = getelementptr inbounds nuw %struct.DdNode, ptr %90, i32 0, i32 1
  %92 = load i32, ptr %91, align 4, !tbaa !35
  %93 = add i32 %92, -1
  store i32 %93, ptr %91, align 4, !tbaa !35
  br label %94

94:                                               ; preds = %86, %83
  %95 = load ptr, ptr %11, align 8, !tbaa !8
  store ptr %95, ptr %5, align 8
  store i32 1, ptr %14, align 4
  br label %96

96:                                               ; preds = %94, %22
  call void @llvm.lifetime.end.p0(i64 4, ptr %13) #6
  call void @llvm.lifetime.end.p0(i64 4, ptr %12) #6
  call void @llvm.lifetime.end.p0(i64 8, ptr %11) #6
  call void @llvm.lifetime.end.p0(i64 8, ptr %10) #6
  %97 = load ptr, ptr %5, align 8
  ret ptr %97
}