; Function Attrs: nounwind uwtable
define ptr @Cudd_addGeneralVectorCompose(ptr noundef initializes((448, 452)) %0, ptr noundef %1, ptr noundef %2, ptr noundef %3) local_unnamed_addr #0 {
  %5 = getelementptr inbounds nuw i8, ptr %0, i64 448
  store i32 0, ptr %5, align 8, !tbaa !26
  %6 = tail call ptr @cuddHashTableInit(ptr noundef %0, i32 noundef 1, i32 noundef 2) #7
  %7 = icmp eq ptr %6, null
  br i1 %7, label %.loopexit, label %.lr.ph

.lr.ph:                                           ; preds = %4
  %8 = getelementptr inbounds nuw i8, ptr %0, i64 136
  %9 = getelementptr inbounds nuw i8, ptr %0, i64 328
  %10 = getelementptr inbounds nuw i8, ptr %0, i64 40
  %11 = getelementptr inbounds nuw i8, ptr %0, i64 48
  br label %12

12:                                               ; preds = %.lr.ph, %.backedge
  %13 = phi ptr [ %6, %.lr.ph ], [ %55, %.backedge ]
  %14 = load i32, ptr %8, align 8, !tbaa !3
  %15 = zext i32 %14 to i64
  %smin = tail call i32 @llvm.smin.i32(i32 %14, i32 0)
  %16 = add i32 %smin, -1
  br label %17

17:                                               ; preds = %ddIsIthAddVarPair.exit, %12
  %indvars.iv = phi i64 [ %indvars.iv.next, %ddIsIthAddVarPair.exit ], [ %15, %12 ]
  %indvars.iv.next = add nsw i64 %indvars.iv, -1
  %18 = trunc nuw i64 %indvars.iv to i32
  %19 = icmp sgt i32 %18, 0
  br i1 %19, label %20, label %ddIsIthAddVarPair.exit.thread

20:                                               ; preds = %17
  %21 = load ptr, ptr %9, align 8, !tbaa !56
  %22 = and i64 %indvars.iv.next, 4294967295
  %23 = getelementptr inbounds nuw i32, ptr %21, i64 %22
  %24 = load i32, ptr %23, align 4, !tbaa !31
  %25 = sext i32 %24 to i64
  %26 = getelementptr inbounds ptr, ptr %2, i64 %25
  %27 = load ptr, ptr %26, align 8, !tbaa !25
  %28 = getelementptr inbounds ptr, ptr %3, i64 %25
  %29 = load ptr, ptr %28, align 8, !tbaa !25
  %30 = load i32, ptr %27, align 8, !tbaa !30
  %31 = icmp eq i32 %30, %24
  br i1 %31, label %32, label %ddIsIthAddVarPair.exit.thread.split.loop.exit

32:                                               ; preds = %20
  %33 = load i32, ptr %29, align 8, !tbaa !30
  %34 = icmp eq i32 %33, %24
  br i1 %34, label %35, label %ddIsIthAddVarPair.exit.thread.split.loop.exit39

35:                                               ; preds = %32
  %36 = getelementptr inbounds nuw i8, ptr %27, i64 16
  %37 = load ptr, ptr %36, align 8, !tbaa !32
  %38 = load ptr, ptr %10, align 8, !tbaa !36
  %39 = icmp eq ptr %37, %38
  br i1 %39, label %40, label %ddIsIthAddVarPair.exit.thread.split.loop.exit41

40:                                               ; preds = %35
  %41 = getelementptr inbounds nuw i8, ptr %27, i64 24
  %42 = load ptr, ptr %41, align 8, !tbaa !32
  %43 = load ptr, ptr %11, align 8, !tbaa !37
  %44 = icmp eq ptr %42, %43
  br i1 %44, label %45, label %ddIsIthAddVarPair.exit.thread.split.loop.exit43

45:                                               ; preds = %40
  %46 = getelementptr inbounds nuw i8, ptr %29, i64 16
  %47 = load ptr, ptr %46, align 8, !tbaa !32
  %48 = icmp eq ptr %47, %42
  br i1 %48, label %ddIsIthAddVarPair.exit, label %ddIsIthAddVarPair.exit.thread.split.loop.exit45

ddIsIthAddVarPair.exit:                           ; preds = %45
  %49 = getelementptr inbounds nuw i8, ptr %29, i64 24
  %50 = load ptr, ptr %49, align 8, !tbaa !32
  %.not = icmp eq ptr %50, %37
  br i1 %.not, label %17, label %ddIsIthAddVarPair.exit.thread.split.loop.exit47, !llvm.loop !59

ddIsIthAddVarPair.exit.thread.split.loop.exit:    ; preds = %20
  %indvars.le59 = trunc i64 %indvars.iv.next to i32
  br label %ddIsIthAddVarPair.exit.thread

ddIsIthAddVarPair.exit.thread.split.loop.exit39:  ; preds = %32
  %indvars.le57 = trunc i64 %indvars.iv.next to i32
  br label %ddIsIthAddVarPair.exit.thread

ddIsIthAddVarPair.exit.thread.split.loop.exit41:  ; preds = %35
  %indvars.le55 = trunc i64 %indvars.iv.next to i32
  br label %ddIsIthAddVarPair.exit.thread

ddIsIthAddVarPair.exit.thread.split.loop.exit43:  ; preds = %40
  %indvars.le53 = trunc i64 %indvars.iv.next to i32
  br label %ddIsIthAddVarPair.exit.thread

ddIsIthAddVarPair.exit.thread.split.loop.exit45:  ; preds = %45
  %indvars.le51 = trunc i64 %indvars.iv.next to i32
  br label %ddIsIthAddVarPair.exit.thread

ddIsIthAddVarPair.exit.thread.split.loop.exit47:  ; preds = %ddIsIthAddVarPair.exit
  %indvars.le = trunc i64 %indvars.iv.next to i32
  br label %ddIsIthAddVarPair.exit.thread

ddIsIthAddVarPair.exit.thread:                    ; preds = %17, %ddIsIthAddVarPair.exit.thread.split.loop.exit47, %ddIsIthAddVarPair.exit.thread.split.loop.exit45, %ddIsIthAddVarPair.exit.thread.split.loop.exit43, %ddIsIthAddVarPair.exit.thread.split.loop.exit41, %ddIsIthAddVarPair.exit.thread.split.loop.exit39, %ddIsIthAddVarPair.exit.thread.split.loop.exit
  %.027.lcssa = phi i32 [ %indvars.le59, %ddIsIthAddVarPair.exit.thread.split.loop.exit ], [ %indvars.le57, %ddIsIthAddVarPair.exit.thread.split.loop.exit39 ], [ %indvars.le55, %ddIsIthAddVarPair.exit.thread.split.loop.exit41 ], [ %indvars.le53, %ddIsIthAddVarPair.exit.thread.split.loop.exit43 ], [ %indvars.le51, %ddIsIthAddVarPair.exit.thread.split.loop.exit45 ], [ %indvars.le, %ddIsIthAddVarPair.exit.thread.split.loop.exit47 ], [ %16, %17 ]
  %51 = tail call fastcc ptr @cuddAddGeneralVectorComposeRecur(ptr noundef %0, ptr noundef %13, ptr noundef %1, ptr noundef %2, ptr noundef %3, i32 noundef %.027.lcssa)
  %.not30 = icmp eq ptr %51, null
  br i1 %.not30, label %52, label %.thread

52:                                               ; preds = %ddIsIthAddVarPair.exit.thread
  tail call void @cuddHashTableQuit(ptr noundef nonnull %13) #7
  %53 = load i32, ptr %5, align 8, !tbaa !26
  %54 = icmp eq i32 %53, 1
  br i1 %54, label %.backedge, label %.loopexit

.backedge:                                        ; preds = %52, %.thread
  store i32 0, ptr %5, align 8, !tbaa !26
  %55 = tail call ptr @cuddHashTableInit(ptr noundef nonnull %0, i32 noundef 1, i32 noundef 2) #7
  %56 = icmp eq ptr %55, null
  br i1 %56, label %.loopexit, label %12, !llvm.loop !60

.thread:                                          ; preds = %ddIsIthAddVarPair.exit.thread
  %57 = ptrtoint ptr %51 to i64
  %58 = and i64 %57, -2
  %59 = inttoptr i64 %58 to ptr
  %60 = getelementptr inbounds nuw i8, ptr %59, i64 4
  %61 = load i32, ptr %60, align 4, !tbaa !33
  %62 = add i32 %61, 1
  store i32 %62, ptr %60, align 4, !tbaa !33
  tail call void @cuddHashTableQuit(ptr noundef nonnull %13) #7
  %63 = load i32, ptr %5, align 8, !tbaa !26
  %64 = icmp eq i32 %63, 1
  br i1 %64, label %.backedge, label %65

65:                                               ; preds = %.thread
  %66 = getelementptr inbounds nuw i8, ptr %59, i64 4
  %67 = load i32, ptr %66, align 4, !tbaa !33
  %68 = add i32 %67, -1
  store i32 %68, ptr %66, align 4, !tbaa !33
  br label %.loopexit

.loopexit:                                        ; preds = %.backedge, %52, %4, %65
  %.0 = phi ptr [ %51, %65 ], [ null, %4 ], [ null, %52 ], [ null, %.backedge ]
  ret ptr %.0
}